target datalayout = "e-m:e-p270:32:32-p271:32:32-p272:64:64-i64:64-i128:128-f80:128-n8:16:32:64-S128"
target triple = "x86_64-pc-linux-gnu"

%struct.HTable = type { i32, ptr }
%struct.Module_ = type { ptr, ptr, ptr, i16, i32, ptr, %struct.HTable, ptr, ptr, ptr, ptr, ptr, ptr, ptr, ptr, ptr }
%struct.Path_ = type { %union.SourceSpan, ptr, i32 }
%union.SourceSpan = type { i64 }
%struct.Decl_ = type { ptr, ptr, %union.SourceSpan, i64, %union.anon, i32, %union.anon.0, i64, ptr, ptr, ptr, %union.anon.1 }
%union.anon = type { ptr }
%union.anon.0 = type { i16 }
%union.anon.1 = type { %struct.FuncDecl }
%struct.FuncDecl = type { i32, [4 x i8], %struct.Signature_, i32, i32, %union.anon.8 }
%struct.Signature_ = type <{ %struct.CalleeAttributes, i16, i8, i32, i32, [4 x i8], ptr }>
%struct.CalleeAttributes = type { i8 }
%union.anon.8 = type { %struct.anon.9 }
%struct.anon.9 = type { i16, %union.anon.10 }
%union.anon.10 = type { ptr }
%struct.VHeader_ = type { i32, i32, [0 x i8] }
%struct.ImportDecl = type { ptr, i8, ptr }
%struct.NameResolve = type { ptr, ptr, ptr, ptr, %union.SourceSpan, ptr, i8, i8 }

; Function Attrs: nounwind uwtable
define internal zeroext i1 @matches_subpath(ptr noundef %0, ptr noundef %1) #0 {
  %3 = alloca i1, align 1
  %4 = alloca ptr, align 8
  %5 = alloca ptr, align 8
  %6 = alloca i64, align 8
  store ptr %0, ptr %4, align 8
  store ptr %1, ptr %5, align 8
  %7 = load ptr, ptr %5, align 8
  %8 = getelementptr inbounds %struct.Path_, ptr %7, i32 0, i32 1
  %9 = load ptr, ptr %8, align 8
  %10 = load ptr, ptr %4, align 8
  %11 = getelementptr inbounds %struct.Path_, ptr %10, i32 0, i32 1
  %12 = load ptr, ptr %11, align 8
  %13 = icmp eq ptr %9, %12
  br i1 %13, label %14, label %15

14:                                               ; preds = %2
  store i1 true, ptr %3, align 1
  br label %64

15:                                               ; preds = %2
  %16 = load ptr, ptr %4, align 8
  %17 = getelementptr inbounds %struct.Path_, ptr %16, i32 0, i32 2
  %18 = load i32, ptr %17, align 8
  %19 = zext i32 %18 to i64
  %20 = load ptr, ptr %5, align 8
  %21 = getelementptr inbounds %struct.Path_, ptr %20, i32 0, i32 2
  %22 = load i32, ptr %21, align 8
  %23 = zext i32 %22 to i64
  %24 = sub nsw i64 %19, %23
  store i64 %24, ptr %6, align 8
  %25 = load i64, ptr %6, align 8
  %26 = icmp slt i64 %25, 3
  br i1 %26, label %27, label %28

27:                                               ; preds = %15
  store i1 false, ptr %3, align 1
  br label %64

28:                                               ; preds = %15
  %29 = load ptr, ptr %4, align 8
  %30 = getelementptr inbounds %struct.Path_, ptr %29, i32 0, i32 1
  %31 = load ptr, ptr %30, align 8
  %32 = load i64, ptr %6, align 8
  %33 = sub nsw i64 %32, 1
  %34 = getelementptr inbounds i8, ptr %31, i64 %33
  %35 = load i8, ptr %34, align 1
  %36 = sext i8 %35 to i32
  %37 = icmp ne i32 %36, 58
  br i1 %37, label %48, label %38

38:                                               ; preds = %28
  %39 = load ptr, ptr %4, align 8
  %40 = getelementptr inbounds %struct.Path_, ptr %39, i32 0, i32 1
  %41 = load ptr, ptr %40, align 8
  %42 = load i64, ptr %6, align 8
  %43 = sub nsw i64 %42, 2
  %44 = getelementptr inbounds i8, ptr %41, i64 %43
  %45 = load i8, ptr %44, align 1
  %46 = sext i8 %45 to i32
  %47 = icmp ne i32 %46, 58
  br i1 %47, label %48, label %49

48:                                               ; preds = %38, %28
  store i1 false, ptr %3, align 1
  br label %64

49:                                               ; preds = %38
  %50 = load ptr, ptr %4, align 8
  %51 = getelementptr inbounds %struct.Path_, ptr %50, i32 0, i32 1
  %52 = load ptr, ptr %51, align 8
  %53 = load i64, ptr %6, align 8
  %54 = getelementptr inbounds i8, ptr %52, i64 %53
  %55 = load ptr, ptr %5, align 8
  %56 = getelementptr inbounds %struct.Path_, ptr %55, i32 0, i32 1
  %57 = load ptr, ptr %56, align 8
  %58 = load ptr, ptr %5, align 8
  %59 = getelementptr inbounds %struct.Path_, ptr %58, i32 0, i32 2
  %60 = load i32, ptr %59, align 8
  %61 = zext i32 %60 to i64
  %62 = call i32 @memcmp(ptr noundef %54, ptr noundef %57, i64 noundef %61) #8
  %63 = icmp eq i32 0, %62
  store i1 %63, ptr %3, align 1
  br label %64

64:                                               ; preds = %49, %48, %27, %14
  %65 = load i1, ptr %3, align 1
  ret i1 %65
}

; Function Attrs: nounwind uwtable
define internal ptr @sema_find_decl_in_module(ptr noundef %0, ptr noundef %1, ptr noundef %2, ptr noundef %3) #0 {
  %5 = alloca ptr, align 8
  %6 = alloca ptr, align 8
  %7 = alloca ptr, align 8
  %8 = alloca ptr, align 8
  %9 = alloca ptr, align 8
  store ptr %0, ptr %6, align 8
  store ptr %1, ptr %7, align 8
  store ptr %2, ptr %8, align 8
  store ptr %3, ptr %9, align 8
  %10 = load ptr, ptr %7, align 8
  %11 = icmp ne ptr %10, null
  br i1 %11, label %16, label %12

12:                                               ; preds = %4
  %13 = load ptr, ptr %6, align 8
  %14 = load ptr, ptr %8, align 8
  %15 = call ptr @module_find_symbol(ptr noundef %13, ptr noundef %14)
  store ptr %15, ptr %5, align 8
  br label %39

16:                                               ; preds = %4
  %17 = load ptr, ptr %7, align 8
  %18 = getelementptr inbounds %struct.Path_, ptr %17, i32 0, i32 2
  %19 = load i32, ptr %18, align 8
  %20 = load ptr, ptr %6, align 8
  %21 = getelementptr inbounds %struct.Module_, ptr %20, i32 0, i32 0
  %22 = load ptr, ptr %21, align 8
  %23 = getelementptr inbounds %struct.Path_, ptr %22, i32 0, i32 2
  %24 = load i32, ptr %23, align 8
  %25 = icmp ugt i32 %19, %24
  br i1 %25, label %26, label %27

26:                                               ; preds = %16
  store ptr null, ptr %5, align 8
  br label %39

27:                                               ; preds = %16
  %28 = load ptr, ptr %6, align 8
  %29 = getelementptr inbounds %struct.Module_, ptr %28, i32 0, i32 0
  %30 = load ptr, ptr %29, align 8
  %31 = load ptr, ptr %7, align 8
  %32 = call zeroext i1 @matches_subpath(ptr noundef %30, ptr noundef %31)
  br i1 %32, label %34, label %33

33:                                               ; preds = %27
  store ptr null, ptr %5, align 8
  br label %39

34:                                               ; preds = %27
  %35 = load ptr, ptr %9, align 8
  store i8 1, ptr %35, align 1
  %36 = load ptr, ptr %6, align 8
  %37 = load ptr, ptr %8, align 8
  %38 = call ptr @module_find_symbol(ptr noundef %36, ptr noundef %37)
  store ptr %38, ptr %5, align 8
  br label %39

39:                                               ; preds = %34, %33, %26, %12
  %40 = load ptr, ptr %5, align 8
  ret ptr %40
}

; Function Attrs: nounwind uwtable
define internal ptr @sema_find_decl_in_private_imports(ptr noundef %0, ptr noundef %1, i1 noundef zeroext %2) #0 {
  %4 = alloca i32, align 4
  %5 = alloca ptr, align 8
  %6 = alloca ptr, align 8
  %7 = alloca ptr, align 8
  %8 = alloca ptr, align 8
  %9 = alloca i8, align 1
  %10 = alloca ptr, align 8
  %11 = alloca ptr, align 8
  %12 = alloca ptr, align 8
  %13 = alloca i32, align 4
  %14 = alloca i32, align 4
  %15 = alloca ptr, align 8
  %16 = alloca ptr, align 8
  store ptr %0, ptr %7, align 8
  store ptr %1, ptr %8, align 8
  %17 = zext i1 %2 to i8
  store i8 %17, ptr %9, align 1
  store ptr null, ptr %10, align 8
  %18 = load ptr, ptr %8, align 8
  %19 = getelementptr inbounds %struct.NameResolve, ptr %18, i32 0, i32 3
  %20 = load ptr, ptr %19, align 8
  store ptr %20, ptr %11, align 8
  %21 = load ptr, ptr %8, align 8
  %22 = getelementptr inbounds %struct.NameResolve, ptr %21, i32 0, i32 5
  %23 = load ptr, ptr %22, align 8
  store ptr %23, ptr %12, align 8
  store i32 0, ptr %13, align 4
  %24 = load ptr, ptr %7, align 8
  store ptr %24, ptr %5, align 8
  %25 = load ptr, ptr %5, align 8
  %26 = icmp ne ptr %25, null
  br i1 %26, label %28, label %27

27:                                               ; preds = %3
  store i32 0, ptr %4, align 4
  br label %33

28:                                               ; preds = %3
  %29 = load ptr, ptr %5, align 8
  store ptr %29, ptr %6, align 8
  %30 = load ptr, ptr %6, align 8
  %31 = getelementptr inbounds %struct.VHeader_, ptr %30, i64 -1
  %32 = load i32, ptr %31, align 4
  store i32 %32, ptr %4, align 4
  br label %33

33:                                               ; preds = %28, %27
  %34 = load i32, ptr %4, align 4
  store i32 %34, ptr %14, align 4
  br label %35

35:                                               ; preds = %130, %33
  %36 = load i32, ptr %13, align 4
  %37 = load i32, ptr %14, align 4
  %38 = icmp ult i32 %36, %37
  br i1 %38, label %39, label %133

39:                                               ; preds = %35
  %40 = load ptr, ptr %7, align 8
  %41 = load i32, ptr %13, align 4
  %42 = zext i32 %41 to i64
  %43 = getelementptr inbounds ptr, ptr %40, i64 %42
  %44 = load ptr, ptr %43, align 8
  store ptr %44, ptr %15, align 8
  %45 = load ptr, ptr %15, align 8
  %46 = getelementptr inbounds %struct.Decl_, ptr %45, i32 0, i32 11
  %47 = getelementptr inbounds %struct.ImportDecl, ptr %46, i32 0, i32 2
  %48 = load ptr, ptr %47, align 8
  %49 = getelementptr inbounds %struct.Module_, ptr %48, i32 0, i32 3
  %50 = load i16, ptr %49, align 8
  %51 = lshr i16 %50, 3
  %52 = and i16 %51, 1
  %53 = trunc i16 %52 to i1
  %54 = zext i1 %53 to i32
  %55 = load i8, ptr %9, align 1
  %56 = trunc i8 %55 to i1
  %57 = zext i1 %56 to i32
  %58 = icmp ne i32 %54, %57
  br i1 %58, label %59, label %60

59:                                               ; preds = %39
  br label %130

60:                                               ; preds = %39
  %61 = load ptr, ptr %15, align 8
  %62 = getelementptr inbounds %struct.Decl_, ptr %61, i32 0, i32 11
  %63 = getelementptr inbounds %struct.ImportDecl, ptr %62, i32 0, i32 1
  %64 = load i8, ptr %63, align 8
  %65 = trunc i8 %64 to i1
  br i1 %65, label %67, label %66

66:                                               ; preds = %60
  br label %130

67:                                               ; preds = %60
  %68 = load ptr, ptr %15, align 8
  %69 = getelementptr inbounds %struct.Decl_, ptr %68, i32 0, i32 11
  %70 = getelementptr inbounds %struct.ImportDecl, ptr %69, i32 0, i32 2
  %71 = load ptr, ptr %70, align 8
  %72 = load ptr, ptr %11, align 8
  %73 = load ptr, ptr %12, align 8
  %74 = load ptr, ptr %8, align 8
  %75 = getelementptr inbounds %struct.NameResolve, ptr %74, i32 0, i32 6
  %76 = call ptr @sema_find_decl_in_module(ptr noundef %71, ptr noundef %72, ptr noundef %73, ptr noundef %75)
  store ptr %76, ptr %16, align 8
  %77 = load ptr, ptr %16, align 8
  %78 = icmp ne ptr %77, null
  br i1 %78, label %80, label %79

79:                                               ; preds = %67
  br label %130

80:                                               ; preds = %67
  %81 = load ptr, ptr %10, align 8
  %82 = icmp ne ptr %81, null
  br i1 %82, label %83, label %126

83:                                               ; preds = %80
  %84 = load ptr, ptr %11, align 8
  %85 = icmp ne ptr %84, null
  br i1 %85, label %122, label %86

86:                                               ; preds = %83
  %87 = load ptr, ptr %10, align 8
  %88 = getelementptr inbounds %struct.Decl_, ptr %87, i32 0, i32 3
  %89 = load i64, ptr %88, align 8
  %90 = lshr i64 %89, 18
  %91 = and i64 %90, 1
  %92 = trunc i64 %91 to i1
  br i1 %92, label %93, label %101

93:                                               ; preds = %86
  %94 = load ptr, ptr %16, align 8
  %95 = getelementptr inbounds %struct.Decl_, ptr %94, i32 0, i32 3
  %96 = load i64, ptr %95, align 8
  %97 = lshr i64 %96, 18
  %98 = and i64 %97, 1
  %99 = trunc i64 %98 to i1
  br i1 %99, label %101, label %100

100:                                              ; preds = %93
  br label %130

101:                                              ; preds = %93, %86
  %102 = load ptr, ptr %16, align 8
  %103 = getelementptr inbounds %struct.Decl_, ptr %102, i32 0, i32 3
  %104 = load i64, ptr %103, align 8
  %105 = lshr i64 %104, 18
  %106 = and i64 %105, 1
  %107 = trunc i64 %106 to i1
  br i1 %107, label %108, label %121

108:                                              ; preds = %101
  %109 = load ptr, ptr %10, align 8
  %110 = getelementptr inbounds %struct.Decl_, ptr %109, i32 0, i32 3
  %111 = load i64, ptr %110, align 8
  %112 = lshr i64 %111, 18
  %113 = and i64 %112, 1
  %114 = trunc i64 %113 to i1
  br i1 %114, label %121, label %115

115:                                              ; preds = %108
  %116 = load ptr, ptr %16, align 8
  store ptr %116, ptr %10, align 8
  %117 = load ptr, ptr %8, align 8
  %118 = getelementptr inbounds %struct.NameResolve, ptr %117, i32 0, i32 1
  store ptr null, ptr %118, align 8
  %119 = load ptr, ptr %8, align 8
  %120 = getelementptr inbounds %struct.NameResolve, ptr %119, i32 0, i32 0
  store ptr null, ptr %120, align 8
  br label %130

121:                                              ; preds = %108, %101
  br label %122

122:                                              ; preds = %121, %83
  %123 = load ptr, ptr %16, align 8
  %124 = load ptr, ptr %8, align 8
  %125 = getelementptr inbounds %struct.NameResolve, ptr %124, i32 0, i32 0
  store ptr %123, ptr %125, align 8
  br label %130

126:                                              ; preds = %80
  %127 = load ptr, ptr %16, align 8
  store ptr %127, ptr %10, align 8
  %128 = load ptr, ptr %8, align 8
  %129 = getelementptr inbounds %struct.NameResolve, ptr %128, i32 0, i32 1
  store ptr null, ptr %129, align 8
  br label %130

130:                                              ; preds = %126, %122, %115, %100, %79, %66, %59
  %131 = load i32, ptr %13, align 4
  %132 = add i32 %131, 1
  store i32 %132, ptr %13, align 4
  br label %35, !llvm.loop !22

133:                                              ; preds = %35
  %134 = load ptr, ptr %10, align 8
  ret ptr %134
}