; Function Attrs: nounwind uwtable
define internal fastcc ptr @sema_find_decl_in_private_imports(ptr noundef readonly %0, ptr nocapture noundef %1, i1 noundef zeroext %2) unnamed_addr #2 {
  %4 = getelementptr inbounds i8, ptr %1, i64 24
  %5 = load ptr, ptr %4, align 8
  %.fr = freeze ptr %5
  %6 = getelementptr inbounds i8, ptr %1, i64 40
  %7 = load ptr, ptr %6, align 8
  %.not = icmp eq ptr %0, null
  br i1 %.not, label %._crit_edge, label %8

8:                                                ; preds = %3
  %9 = getelementptr inbounds i8, ptr %0, i64 -8
  %10 = load i32, ptr %9, align 4
  %.not52 = icmp eq i32 %10, 0
  br i1 %.not52, label %._crit_edge, label %.lr.ph

.lr.ph:                                           ; preds = %8
  %11 = getelementptr inbounds i8, ptr %1, i64 48
  %.not.i = icmp eq ptr %.fr, null
  %12 = getelementptr inbounds i8, ptr %.fr, i64 16
  %13 = getelementptr inbounds i8, ptr %.fr, i64 8
  %14 = getelementptr inbounds i8, ptr %1, i64 8
  %wide.trip.count58 = zext i32 %10 to i64
  br i1 %.not.i, label %.lr.ph.split.us, label %.lr.ph.split

.lr.ph.split.us:                                  ; preds = %.lr.ph, %sema_find_decl_in_module.exit.thread.us
  %indvars.iv55 = phi i64 [ %indvars.iv.next56, %sema_find_decl_in_module.exit.thread.us ], [ 0, %.lr.ph ]
  %.03350.us = phi ptr [ %.1.us, %sema_find_decl_in_module.exit.thread.us ], [ null, %.lr.ph ]
  %15 = getelementptr inbounds ptr, ptr %0, i64 %indvars.iv55
  %16 = load ptr, ptr %15, align 8
  %17 = getelementptr inbounds i8, ptr %16, i64 96
  %18 = load ptr, ptr %17, align 8
  %19 = getelementptr inbounds i8, ptr %18, i64 24
  %20 = load i16, ptr %19, align 8
  %21 = and i16 %20, 8
  %22 = icmp eq i16 %21, 0
  %.not37.us = xor i1 %22, %2
  br i1 %.not37.us, label %23, label %sema_find_decl_in_module.exit.thread.us

23:                                               ; preds = %.lr.ph.split.us
  %24 = getelementptr inbounds i8, ptr %16, i64 88
  %25 = load i8, ptr %24, align 8
  %26 = trunc i8 %25 to i1
  br i1 %26, label %sema_find_decl_in_module.exit.us, label %sema_find_decl_in_module.exit.thread.us

sema_find_decl_in_module.exit.us:                 ; preds = %23
  %27 = tail call ptr @module_find_symbol(ptr noundef nonnull %18, ptr noundef %7) #10
  %.not38.us = icmp eq ptr %27, null
  br i1 %.not38.us, label %sema_find_decl_in_module.exit.thread.us, label %28

28:                                               ; preds = %sema_find_decl_in_module.exit.us
  %.not39.us = icmp eq ptr %.03350.us, null
  br i1 %.not39.us, label %39, label %29

29:                                               ; preds = %28
  %30 = getelementptr inbounds i8, ptr %.03350.us, i64 24
  %31 = load i64, ptr %30, align 8
  %32 = and i64 %31, 262144
  %.not41.us = icmp eq i64 %32, 0
  %33 = getelementptr inbounds i8, ptr %27, i64 24
  %34 = load i64, ptr %33, align 8
  %35 = and i64 %34, 262144
  %.not43.us = icmp eq i64 %35, 0
  br i1 %.not41.us, label %37, label %36

36:                                               ; preds = %29
  br i1 %.not43.us, label %sema_find_decl_in_module.exit.thread.us, label %.thread48.us

37:                                               ; preds = %29
  br i1 %.not43.us, label %.thread48.us, label %38

38:                                               ; preds = %37
  tail call void @llvm.memset.p0.i64(ptr noundef nonnull align 8 dereferenceable(16) %1, i8 0, i64 16, i1 false)
  br label %sema_find_decl_in_module.exit.thread.us

.thread48.us:                                     ; preds = %37, %36
  store ptr %27, ptr %1, align 8
  br label %sema_find_decl_in_module.exit.thread.us

39:                                               ; preds = %28
  store ptr null, ptr %14, align 8
  br label %sema_find_decl_in_module.exit.thread.us

sema_find_decl_in_module.exit.thread.us:          ; preds = %39, %.thread48.us, %38, %36, %sema_find_decl_in_module.exit.us, %23, %.lr.ph.split.us
  %.1.us = phi ptr [ %.03350.us, %.lr.ph.split.us ], [ %.03350.us, %.thread48.us ], [ %27, %38 ], [ %.03350.us, %36 ], [ %27, %39 ], [ %.03350.us, %sema_find_decl_in_module.exit.us ], [ %.03350.us, %23 ]
  %indvars.iv.next56 = add nuw nsw i64 %indvars.iv55, 1
  %exitcond59.not = icmp eq i64 %indvars.iv.next56, %wide.trip.count58
  br i1 %exitcond59.not, label %._crit_edge, label %.lr.ph.split.us, !llvm.loop !22

.lr.ph.split:                                     ; preds = %.lr.ph, %sema_find_decl_in_module.exit.thread
  %indvars.iv = phi i64 [ %indvars.iv.next, %sema_find_decl_in_module.exit.thread ], [ 0, %.lr.ph ]
  %.03350 = phi ptr [ %.1, %sema_find_decl_in_module.exit.thread ], [ null, %.lr.ph ]
  %40 = getelementptr inbounds ptr, ptr %0, i64 %indvars.iv
  %41 = load ptr, ptr %40, align 8
  %42 = getelementptr inbounds i8, ptr %41, i64 96
  %43 = load ptr, ptr %42, align 8
  %44 = getelementptr inbounds i8, ptr %43, i64 24
  %45 = load i16, ptr %44, align 8
  %46 = and i16 %45, 8
  %47 = icmp eq i16 %46, 0
  %.not37 = xor i1 %47, %2
  br i1 %.not37, label %48, label %sema_find_decl_in_module.exit.thread

48:                                               ; preds = %.lr.ph.split
  %49 = getelementptr inbounds i8, ptr %41, i64 88
  %50 = load i8, ptr %49, align 8
  %51 = trunc i8 %50 to i1
  br i1 %51, label %52, label %sema_find_decl_in_module.exit.thread

52:                                               ; preds = %48
  %53 = load i32, ptr %12, align 8
  %54 = load ptr, ptr %43, align 8
  %55 = getelementptr inbounds i8, ptr %54, i64 16
  %56 = load i32, ptr %55, align 8
  %57 = icmp ugt i32 %53, %56
  br i1 %57, label %sema_find_decl_in_module.exit.thread, label %58

58:                                               ; preds = %52
  %59 = load ptr, ptr %13, align 8
  %60 = getelementptr inbounds i8, ptr %54, i64 8
  %61 = load ptr, ptr %60, align 8
  %62 = icmp eq ptr %59, %61
  br i1 %62, label %matches_subpath.exit.thread13.i, label %63

63:                                               ; preds = %58
  %64 = zext i32 %56 to i64
  %65 = zext i32 %53 to i64
  %66 = sub nsw i64 %64, %65
  %67 = icmp slt i64 %66, 3
  br i1 %67, label %sema_find_decl_in_module.exit.thread, label %68

68:                                               ; preds = %63
  %69 = getelementptr i8, ptr %61, i64 %66
  %70 = getelementptr i8, ptr %69, i64 -1
  %71 = load i8, ptr %70, align 1
  %.not.i.i = icmp eq i8 %71, 58
  br i1 %.not.i.i, label %72, label %sema_find_decl_in_module.exit.thread

72:                                               ; preds = %68
  %73 = getelementptr i8, ptr %69, i64 -2
  %74 = load i8, ptr %73, align 1
  %.not16.i.i = icmp eq i8 %74, 58
  br i1 %.not16.i.i, label %matches_subpath.exit.i, label %sema_find_decl_in_module.exit.thread

matches_subpath.exit.i:                           ; preds = %72
  %bcmp.i.i = tail call i32 @bcmp(ptr %69, ptr %59, i64 %65)
  %75 = icmp eq i32 %bcmp.i.i, 0
  br i1 %75, label %matches_subpath.exit.thread13.i, label %sema_find_decl_in_module.exit.thread

matches_subpath.exit.thread13.i:                  ; preds = %matches_subpath.exit.i, %58
  store i8 1, ptr %11, align 1
  %76 = tail call ptr @module_find_symbol(ptr noundef nonnull %43, ptr noundef %7) #10
  %.not38 = icmp eq ptr %76, null
  br i1 %.not38, label %sema_find_decl_in_module.exit.thread, label %77

77:                                               ; preds = %matches_subpath.exit.thread13.i
  %.not39 = icmp eq ptr %.03350, null
  br i1 %.not39, label %78, label %.thread48

.thread48:                                        ; preds = %77
  store ptr %76, ptr %1, align 8
  br label %sema_find_decl_in_module.exit.thread

78:                                               ; preds = %77
  store ptr null, ptr %14, align 8
  br label %sema_find_decl_in_module.exit.thread

sema_find_decl_in_module.exit.thread:             ; preds = %68, %72, %63, %matches_subpath.exit.i, %52, %matches_subpath.exit.thread13.i, %48, %.lr.ph.split, %78, %.thread48
  %.1 = phi ptr [ %.03350, %.lr.ph.split ], [ %.03350, %.thread48 ], [ %76, %78 ], [ %.03350, %matches_subpath.exit.thread13.i ], [ %.03350, %48 ], [ %.03350, %52 ], [ %.03350, %matches_subpath.exit.i ], [ %.03350, %63 ], [ %.03350, %72 ], [ %.03350, %68 ]
  %indvars.iv.next = add nuw nsw i64 %indvars.iv, 1
  %exitcond.not = icmp eq i64 %indvars.iv.next, %wide.trip.count58
  br i1 %exitcond.not, label %._crit_edge, label %.lr.ph.split, !llvm.loop !22

._crit_edge:                                      ; preds = %sema_find_decl_in_module.exit.thread, %sema_find_decl_in_module.exit.thread.us, %3, %8
  %.033.lcssa = phi ptr [ null, %8 ], [ null, %3 ], [ %.1.us, %sema_find_decl_in_module.exit.thread.us ], [ %.1, %sema_find_decl_in_module.exit.thread ]
  ret ptr %.033.lcssa
}